target datalayout = "e-m:e-p270:32:32-p271:32:32-p272:64:64-i64:64-i128:128-f80:128-n8:16:32:64-S128"
target triple = "x86_64-pc-linux-gnu"

%struct.nghttp2_map = type { ptr, ptr, i64, i32, i32 }

; Function Attrs: nounwind uwtable
define dso_local void @nghttp2_map_clear(ptr noundef %0) #0 {
  %2 = alloca ptr, align 8
  store ptr %0, ptr %2, align 8
  %3 = load ptr, ptr %2, align 8
  %4 = getelementptr inbounds %struct.nghttp2_map, ptr %3, i32 0, i32 0
  %5 = load ptr, ptr %4, align 8
  %6 = load ptr, ptr %2, align 8
  %7 = getelementptr inbounds %struct.nghttp2_map, ptr %6, i32 0, i32 3
  %8 = load i32, ptr %7, align 8
  %9 = zext i32 %8 to i64
  %10 = mul i64 16, %9
  call void @llvm.memset.p0.i64(ptr align 8 %5, i8 0, i64 %10, i1 false)
  %11 = load ptr, ptr %2, align 8
  %12 = getelementptr inbounds %struct.nghttp2_map, ptr %11, i32 0, i32 2
  store i64 0, ptr %12, align 8
  ret void
}