; Function Attrs: mustprogress nofree norecurse nosync nounwind willreturn memory(write, argmem: readwrite, inaccessiblemem: none) uwtable
define dso_local void @nghttp2_map_clear(ptr noundef captures(none) initializes((16, 24)) %0) local_unnamed_addr #7 {
  %2 = load ptr, ptr %0, align 8
  %3 = getelementptr inbounds nuw i8, ptr %0, i64 24
  %4 = load i32, ptr %3, align 8
  %5 = zext i32 %4 to i64
  %6 = shl nuw nsw i64 %5, 4
  tail call void @llvm.memset.p0.i64(ptr align 8 %2, i8 0, i64 %6, i1 false)
  %7 = getelementptr inbounds nuw i8, ptr %0, i64 16
  store i64 0, ptr %7, align 8
  ret void
}